target datalayout = "e-m:e-p270:32:32-p271:32:32-p272:64:64-i64:64-i128:128-f80:128-n8:16:32:64-S128"
target triple = "x86_64-pc-linux-gnu"

%struct.lookup_dir_st = type { ptr, ptr, ptr }
%struct.x509_lookup_st = type { i32, i32, ptr, ptr, ptr }

@.str.1 = private unnamed_addr constant [32 x i8] c"../openssl/crypto/x509/by_dir.c\00", align 1
@__func__.new_dir = private unnamed_addr constant [8 x i8] c"new_dir\00", align 1

; Function Attrs: nounwind uwtable
define internal i32 @new_dir(ptr noundef %0) #0 {
  %2 = alloca i32, align 4
  %3 = alloca ptr, align 8
  %4 = alloca ptr, align 8
  %5 = alloca i32, align 4
  store ptr %0, ptr %3, align 8, !tbaa !3
  call void @llvm.lifetime.start.p0(i64 8, ptr %4) #7
  %6 = call noalias ptr @CRYPTO_malloc(i64 noundef 24, ptr noundef @.str.1, i32 noundef 110)
  store ptr %6, ptr %4, align 8, !tbaa !8
  %7 = load ptr, ptr %4, align 8, !tbaa !8
  %8 = icmp eq ptr %7, null
  br i1 %8, label %9, label %10

9:                                                ; preds = %1
  store i32 0, ptr %2, align 4
  store i32 1, ptr %5, align 4
  br label %36

10:                                               ; preds = %1
  %11 = call ptr @BUF_MEM_new()
  %12 = load ptr, ptr %4, align 8, !tbaa !8
  %13 = getelementptr inbounds nuw %struct.lookup_dir_st, ptr %12, i32 0, i32 0
  store ptr %11, ptr %13, align 8, !tbaa !10
  %14 = icmp eq ptr %11, null
  br i1 %14, label %15, label %16

15:                                               ; preds = %10
  call void @ERR_new()
  call void @ERR_set_debug(ptr noundef @.str.1, i32 noundef 116, ptr noundef @__func__.new_dir)
  call void (i32, i32, ptr, ...) @ERR_set_error(i32 noundef 11, i32 noundef 524291, ptr noundef null)
  br label %34

16:                                               ; preds = %10
  %17 = load ptr, ptr %4, align 8, !tbaa !8
  %18 = getelementptr inbounds nuw %struct.lookup_dir_st, ptr %17, i32 0, i32 1
  store ptr null, ptr %18, align 8, !tbaa !14
  %19 = call ptr @CRYPTO_THREAD_lock_new()
  %20 = load ptr, ptr %4, align 8, !tbaa !8
  %21 = getelementptr inbounds nuw %struct.lookup_dir_st, ptr %20, i32 0, i32 2
  store ptr %19, ptr %21, align 8, !tbaa !15
  %22 = load ptr, ptr %4, align 8, !tbaa !8
  %23 = getelementptr inbounds nuw %struct.lookup_dir_st, ptr %22, i32 0, i32 2
  %24 = load ptr, ptr %23, align 8, !tbaa !15
  %25 = icmp eq ptr %24, null
  br i1 %25, label %26, label %30

26:                                               ; preds = %16
  %27 = load ptr, ptr %4, align 8, !tbaa !8
  %28 = getelementptr inbounds nuw %struct.lookup_dir_st, ptr %27, i32 0, i32 0
  %29 = load ptr, ptr %28, align 8, !tbaa !10
  call void @BUF_MEM_free(ptr noundef %29)
  call void @ERR_new()
  call void @ERR_set_debug(ptr noundef @.str.1, i32 noundef 123, ptr noundef @__func__.new_dir)
  call void (i32, i32, ptr, ...) @ERR_set_error(i32 noundef 11, i32 noundef 524303, ptr noundef null)
  br label %34

30:                                               ; preds = %16
  %31 = load ptr, ptr %4, align 8, !tbaa !8
  %32 = load ptr, ptr %3, align 8, !tbaa !3
  %33 = getelementptr inbounds nuw %struct.x509_lookup_st, ptr %32, i32 0, i32 3
  store ptr %31, ptr %33, align 8, !tbaa !16
  store i32 1, ptr %2, align 4
  store i32 1, ptr %5, align 4
  br label %36

34:                                               ; preds = %26, %15
  %35 = load ptr, ptr %4, align 8, !tbaa !8
  call void @CRYPTO_free(ptr noundef %35, ptr noundef @.str.1, i32 noundef 130)
  store i32 0, ptr %2, align 4
  store i32 1, ptr %5, align 4
  br label %36

36:                                               ; preds = %34, %30, %9
  call void @llvm.lifetime.end.p0(i64 8, ptr %4) #7
  %37 = load i32, ptr %2, align 4
  ret i32 %37
}