; Function Attrs: nounwind uwtable
define internal range(i32 0, 2) i32 @new_dir(ptr noundef writeonly captures(none) %0) #1 {
  %2 = tail call noalias ptr @CRYPTO_malloc(i64 noundef 24, ptr noundef nonnull @.str.1, i32 noundef 110) #8
  %3 = icmp eq ptr %2, null
  br i1 %3, label %17, label %4

4:                                                ; preds = %1
  %5 = tail call ptr @BUF_MEM_new() #8
  store ptr %5, ptr %2, align 8, !tbaa !3
  %6 = icmp eq ptr %5, null
  br i1 %6, label %16, label %7

7:                                                ; preds = %4
  %8 = getelementptr inbounds nuw i8, ptr %2, i64 8
  store ptr null, ptr %8, align 8, !tbaa !10
  %9 = tail call ptr @CRYPTO_THREAD_lock_new() #8
  %10 = getelementptr inbounds nuw i8, ptr %2, i64 16
  store ptr %9, ptr %10, align 8, !tbaa !11
  %11 = icmp eq ptr %9, null
  br i1 %11, label %12, label %14

12:                                               ; preds = %7
  %13 = load ptr, ptr %2, align 8, !tbaa !3
  tail call void @BUF_MEM_free(ptr noundef %13) #8
  br label %16

14:                                               ; preds = %7
  %15 = getelementptr inbounds nuw i8, ptr %0, i64 16
  store ptr %2, ptr %15, align 8, !tbaa !12
  br label %17

16:                                               ; preds = %4, %12
  %.sink10 = phi i32 [ 123, %12 ], [ 116, %4 ]
  %.sink = phi i32 [ 524303, %12 ], [ 524291, %4 ]
  tail call void @ERR_new() #8
  tail call void @ERR_set_debug(ptr noundef nonnull @.str.1, i32 noundef %.sink10, ptr noundef nonnull @__func__.new_dir) #8
  tail call void (i32, i32, ptr, ...) @ERR_set_error(i32 noundef 11, i32 noundef %.sink, ptr noundef null) #8
  tail call void @CRYPTO_free(ptr noundef nonnull %2, ptr noundef nonnull @.str.1, i32 noundef 130) #8
  br label %17

17:                                               ; preds = %1, %16, %14
  %.0 = phi i32 [ 0, %16 ], [ 1, %14 ], [ 0, %1 ]
  ret i32 %.0
}